; ModuleID = '46/199.c'
source_filename = "46/199.c"
target datalayout = "e-m:e-p270:32:32-p271:32:32-p272:64:64-i64:64-f80:128-n8:16:32:64-S128"
target triple = "x86_64-pc-linux-gnu"

@.str = private unnamed_addr constant [6 x i8] c"%d %d\00", align 1
@.str.1 = private unnamed_addr constant [3 x i8] c"%d\00", align 1
@.str.2 = private unnamed_addr constant [4 x i8] c"%d\0A\00", align 1

; Function Attrs: noinline nounwind uwtable
define dso_local i32 @main() #0 {
  %1 = alloca i32, align 4
  %2 = alloca i32, align 4
  %3 = alloca i32, align 4
  %4 = alloca i32, align 4
  %5 = alloca i32, align 4
  %6 = alloca i32, align 4
  %7 = alloca i32, align 4
  %8 = alloca i32, align 4
  %9 = alloca i32, align 4
  %10 = alloca i32, align 4
  %11 = alloca [100 x [100 x i32]], align 16
  store i32 0, i32* %1, align 4
  store i32 0, i32* %4, align 4
  store i32 0, i32* %5, align 4
  store i32 0, i32* %6, align 4
  store i32 0, i32* %7, align 4
  store i32 0, i32* %8, align 4
  store i32 0, i32* %9, align 4
  store i32 0, i32* %10, align 4
  %12 = call i32 (i8*, ...) @__isoc99_scanf(i8* getelementptr inbounds ([6 x i8], [6 x i8]* @.str, i64 0, i64 0), i32* %2, i32* %3)
  store i32 0, i32* %4, align 4
  br label %13

13:                                               ; preds = %34, %0
  %14 = load i32, i32* %4, align 4
  %15 = load i32, i32* %2, align 4
  %16 = icmp slt i32 %14, %15
  br i1 %16, label %17, label %37

17:                                               ; preds = %13
  store i32 0, i32* %5, align 4
  br label %18

18:                                               ; preds = %30, %17
  %19 = load i32, i32* %5, align 4
  %20 = load i32, i32* %3, align 4
  %21 = icmp slt i32 %19, %20
  br i1 %21, label %22, label %33

22:                                               ; preds = %18
  %23 = load i32, i32* %4, align 4
  %24 = sext i32 %23 to i64
  %25 = getelementptr inbounds [100 x [100 x i32]], [100 x [100 x i32]]* %11, i64 0, i64 %24
  %26 = load i32, i32* %5, align 4
  %27 = sext i32 %26 to i64
  %28 = getelementptr inbounds [100 x i32], [100 x i32]* %25, i64 0, i64 %27
  %29 = call i32 (i8*, ...) @__isoc99_scanf(i8* getelementptr inbounds ([3 x i8], [3 x i8]* @.str.1, i64 0, i64 0), i32* %28)
  br label %30

30:                                               ; preds = %22
  %31 = load i32, i32* %5, align 4
  %32 = add nsw i32 %31, 1
  store i32 %32, i32* %5, align 4
  br label %18

33:                                               ; preds = %18
  br label %34

34:                                               ; preds = %33
  %35 = load i32, i32* %4, align 4
  %36 = add nsw i32 %35, 1
  store i32 %36, i32* %4, align 4
  br label %13

37:                                               ; preds = %13
  %38 = load i32, i32* %2, align 4
  %39 = load i32, i32* %3, align 4
  %40 = icmp sgt i32 %38, %39
  br i1 %40, label %41, label %43

41:                                               ; preds = %37
  %42 = load i32, i32* %3, align 4
  store i32 %42, i32* %9, align 4
  br label %45

43:                                               ; preds = %37
  %44 = load i32, i32* %2, align 4
  store i32 %44, i32* %9, align 4
  br label %45

45:                                               ; preds = %43, %41
  store i32 0, i32* %6, align 4
  br label %46

46:                                               ; preds = %164, %45
  %47 = load i32, i32* %6, align 4
  %48 = load i32, i32* %9, align 4
  %49 = add nsw i32 %48, 2
  %50 = sdiv i32 %49, 2
  %51 = icmp slt i32 %47, %50
  br i1 %51, label %52, label %167

52:                                               ; preds = %46
  %53 = load i32, i32* %6, align 4
  store i32 %53, i32* %4, align 4
  %54 = load i32, i32* %6, align 4
  store i32 %54, i32* %5, align 4
  br label %55

55:                                               ; preds = %71, %52
  %56 = load i32, i32* %5, align 4
  %57 = load i32, i32* %3, align 4
  %58 = load i32, i32* %6, align 4
  %59 = sub nsw i32 %57, %58
  %60 = sub nsw i32 %59, 1
  %61 = icmp slt i32 %56, %60
  br i1 %61, label %62, label %74

62:                                               ; preds = %55
  %63 = load i32, i32* %6, align 4
  %64 = sext i32 %63 to i64
  %65 = getelementptr inbounds [100 x [100 x i32]], [100 x [100 x i32]]* %11, i64 0, i64 %64
  %66 = load i32, i32* %5, align 4
  %67 = sext i32 %66 to i64
  %68 = getelementptr inbounds [100 x i32], [100 x i32]* %65, i64 0, i64 %67
  %69 = load i32, i32* %68, align 4
  %70 = call i32 (i8*, ...) @printf(i8* getelementptr inbounds ([4 x i8], [4 x i8]* @.str.2, i64 0, i64 0), i32 %69)
  br label %71

71:                                               ; preds = %62
  %72 = load i32, i32* %5, align 4
  %73 = add nsw i32 %72, 1
  store i32 %73, i32* %5, align 4
  br label %55

74:                                               ; preds = %55
  %75 = load i32, i32* %6, align 4
  store i32 %75, i32* %4, align 4
  br label %76

76:                                               ; preds = %95, %74
  %77 = load i32, i32* %4, align 4
  %78 = load i32, i32* %2, align 4
  %79 = load i32, i32* %6, align 4
  %80 = sub nsw i32 %78, %79
  %81 = sub nsw i32 %80, 1
  %82 = icmp slt i32 %77, %81
  br i1 %82, label %83, label %98

83:                                               ; preds = %76
  %84 = load i32, i32* %4, align 4
  %85 = sext i32 %84 to i64
  %86 = getelementptr inbounds [100 x [100 x i32]], [100 x [100 x i32]]* %11, i64 0, i64 %85
  %87 = load i32, i32* %3, align 4
  %88 = load i32, i32* %6, align 4
  %89 = sub nsw i32 %87, %88
  %90 = sub nsw i32 %89, 1
  %91 = sext i32 %90 to i64
  %92 = getelementptr inbounds [100 x i32], [100 x i32]* %86, i64 0, i64 %91
  %93 = load i32, i32* %92, align 4
  %94 = call i32 (i8*, ...) @printf(i8* getelementptr inbounds ([4 x i8], [4 x i8]* @.str.2, i64 0, i64 0), i32 %93)
  br label %95

95:                                               ; preds = %83
  %96 = load i32, i32* %4, align 4
  %97 = add nsw i32 %96, 1
  store i32 %97, i32* %4, align 4
  br label %76

98:                                               ; preds = %76
  %99 = load i32, i32* %3, align 4
  %100 = load i32, i32* %6, align 4
  %101 = sub nsw i32 %99, %100
  %102 = sub nsw i32 %101, 1
  store i32 %102, i32* %7, align 4
  br label %103

103:                                              ; preds = %129, %98
  %104 = load i32, i32* %7, align 4
  %105 = load i32, i32* %6, align 4
  %106 = icmp sgt i32 %104, %105
  br i1 %106, label %107, label %132

107:                                              ; preds = %103
  %108 = load i32, i32* %2, align 4
  %109 = load i32, i32* %6, align 4
  %110 = sub nsw i32 %108, %109
  %111 = sub nsw i32 %110, 1
  %112 = sext i32 %111 to i64
  %113 = getelementptr inbounds [100 x [100 x i32]], [100 x [100 x i32]]* %11, i64 0, i64 %112
  %114 = load i32, i32* %7, align 4
  %115 = sext i32 %114 to i64
  %116 = getelementptr inbounds [100 x i32], [100 x i32]* %113, i64 0, i64 %115
  %117 = load i32, i32* %116, align 4
  %118 = call i32 (i8*, ...) @printf(i8* getelementptr inbounds ([4 x i8], [4 x i8]* @.str.2, i64 0, i64 0), i32 %117)
  %119 = load i32, i32* %6, align 4
  %120 = load i32, i32* %9, align 4
  %121 = sdiv i32 %120, 2
  %122 = icmp eq i32 %119, %121
  br i1 %122, label %123, label %128

123:                                              ; preds = %107
  %124 = load i32, i32* %9, align 4
  %125 = srem i32 %124, 2
  %126 = icmp ne i32 %125, 0
  br i1 %126, label %127, label %128

127:                                              ; preds = %123
  br label %132

128:                                              ; preds = %123, %107
  br label %129

129:                                              ; preds = %128
  %130 = load i32, i32* %7, align 4
  %131 = add nsw i32 %130, -1
  store i32 %131, i32* %7, align 4
  br label %103

132:                                              ; preds = %127, %103
  %133 = load i32, i32* %2, align 4
  %134 = load i32, i32* %6, align 4
  %135 = sub nsw i32 %133, %134
  %136 = sub nsw i32 %135, 1
  store i32 %136, i32* %8, align 4
  br label %137

137:                                              ; preds = %160, %132
  %138 = load i32, i32* %8, align 4
  %139 = load i32, i32* %6, align 4
  %140 = icmp sgt i32 %138, %139
  br i1 %140, label %141, label %163

141:                                              ; preds = %137
  %142 = load i32, i32* %8, align 4
  %143 = sext i32 %142 to i64
  %144 = getelementptr inbounds [100 x [100 x i32]], [100 x [100 x i32]]* %11, i64 0, i64 %143
  %145 = load i32, i32* %6, align 4
  %146 = sext i32 %145 to i64
  %147 = getelementptr inbounds [100 x i32], [100 x i32]* %144, i64 0, i64 %146
  %148 = load i32, i32* %147, align 4
  %149 = call i32 (i8*, ...) @printf(i8* getelementptr inbounds ([4 x i8], [4 x i8]* @.str.2, i64 0, i64 0), i32 %148)
  %150 = load i32, i32* %6, align 4
  %151 = load i32, i32* %9, align 4
  %152 = sdiv i32 %151, 2
  %153 = icmp eq i32 %150, %152
  br i1 %153, label %154, label %159

154:                                              ; preds = %141
  %155 = load i32, i32* %9, align 4
  %156 = srem i32 %155, 2
  %157 = icmp ne i32 %156, 0
  br i1 %157, label %158, label %159

158:                                              ; preds = %154
  br label %163

159:                                              ; preds = %154, %141
  br label %160

160:                                              ; preds = %159
  %161 = load i32, i32* %8, align 4
  %162 = add nsw i32 %161, -1
  store i32 %162, i32* %8, align 4
  br label %137

163:                                              ; preds = %158, %137
  br label %164

164:                                              ; preds = %163
  %165 = load i32, i32* %6, align 4
  %166 = add nsw i32 %165, 1
  store i32 %166, i32* %6, align 4
  br label %46

167:                                              ; preds = %46
  %168 = load i32, i32* %2, align 4
  %169 = load i32, i32* %3, align 4
  %170 = icmp eq i32 %168, %169
  br i1 %170, label %171, label %187

171:                                              ; preds = %167
  %172 = load i32, i32* %2, align 4
  %173 = srem i32 %172, 2
  %174 = icmp ne i32 %173, 0
  br i1 %174, label %175, label %187

175:                                              ; preds = %171
  %176 = load i32, i32* %2, align 4
  %177 = sub nsw i32 %176, 1
  %178 = sdiv i32 %177, 2
  store i32 %178, i32* %10, align 4
  %179 = load i32, i32* %10, align 4
  %180 = sext i32 %179 to i64
  %181 = getelementptr inbounds [100 x [100 x i32]], [100 x [100 x i32]]* %11, i64 0, i64 %180
  %182 = load i32, i32* %10, align 4
  %183 = sext i32 %182 to i64
  %184 = getelementptr inbounds [100 x i32], [100 x i32]* %181, i64 0, i64 %183
  %185 = load i32, i32* %184, align 4
  %186 = call i32 (i8*, ...) @printf(i8* getelementptr inbounds ([3 x i8], [3 x i8]* @.str.1, i64 0, i64 0), i32 %185)
  br label %187

187:                                              ; preds = %175, %171, %167
  ret i32 0
}

declare dso_local i32 @__isoc99_scanf(i8*, ...) #1

declare dso_local i32 @printf(i8*, ...) #1


!llvm.module.flags = !{!0}
!llvm.ident = !{!1}

!0 = !{i32 1, !"wchar_size", i32 4}
!1 = !{!"clang version 10.0.0-4ubuntu1 "}
